; Function Attrs: mustprogress uwtable
define void @_ZNK5Ipopt9SumMatrix14MultVectorImplEdRKNS_6VectorEdRS1_(ptr noundef nonnull readonly align 8 captures(none) dereferenceable(128) %0, double noundef %1, ptr noundef nonnull align 8 dereferenceable(205) %2, double noundef %3, ptr noundef nonnull align 8 dereferenceable(205) %4) unnamed_addr #0 align 2 {
  %6 = fcmp une double %3, 0.000000e+00
  br i1 %6, label %7, label %8

7:                                                ; preds = %5
  tail call void @_ZN5Ipopt6Vector4ScalEd(ptr noundef nonnull align 8 dereferenceable(205) %4, double noundef %3)
  br label %12

8:                                                ; preds = %5
  %9 = load ptr, ptr %4, align 8, !tbaa !8
  %10 = getelementptr inbounds nuw i8, ptr %9, i64 72
  %11 = load ptr, ptr %10, align 8
  tail call void %11(ptr noundef nonnull align 8 dereferenceable(205) %4, double noundef 0.000000e+00)
  tail call void @_ZN5Ipopt12TaggedObject13ObjectChangedEv(ptr noundef nonnull align 8 dereferenceable(205) %4)
  br label %12

12:                                               ; preds = %8, %7
  %13 = getelementptr inbounds nuw i8, ptr %0, i64 120
  %14 = load ptr, ptr %13, align 8, !tbaa !50
  %15 = getelementptr inbounds nuw i8, ptr %14, i64 20
  %16 = load i32, ptr %15, align 4, !tbaa !25
  %17 = icmp sgt i32 %16, 0
  br i1 %17, label %.lr.ph, label %._crit_edge

.lr.ph:                                           ; preds = %12
  %18 = getelementptr inbounds nuw i8, ptr %0, i64 96
  %19 = getelementptr inbounds nuw i8, ptr %0, i64 72
  br label %20

._crit_edge:                                      ; preds = %20, %12
  ret void

20:                                               ; preds = %.lr.ph, %20
  %indvars.iv = phi i64 [ 0, %.lr.ph ], [ %indvars.iv.next, %20 ]
  %21 = load ptr, ptr %18, align 8, !tbaa !42
  %22 = getelementptr inbounds nuw %"class.Ipopt::SmartPtr.15", ptr %21, i64 %indvars.iv
  %23 = load ptr, ptr %22, align 8, !tbaa !45
  %24 = load ptr, ptr %19, align 8, !tbaa !33
  %25 = getelementptr inbounds nuw double, ptr %24, i64 %indvars.iv
  %26 = load double, ptr %25, align 8, !tbaa !37
  %27 = fmul double %1, %26
  %28 = load ptr, ptr %23, align 8, !tbaa !8
  %29 = getelementptr inbounds nuw i8, ptr %28, i64 32
  %30 = load ptr, ptr %29, align 8
  tail call void %30(ptr noundef nonnull align 8 dereferenceable(69) %23, double noundef %27, ptr noundef nonnull align 8 dereferenceable(205) %2, double noundef 1.000000e+00, ptr noundef nonnull align 8 dereferenceable(205) %4)
  %indvars.iv.next = add nuw nsw i64 %indvars.iv, 1
  %31 = load ptr, ptr %13, align 8, !tbaa !50
  %32 = getelementptr inbounds nuw i8, ptr %31, i64 20
  %33 = load i32, ptr %32, align 4, !tbaa !25
  %34 = sext i32 %33 to i64
  %35 = icmp slt i64 %indvars.iv.next, %34
  br i1 %35, label %20, label %._crit_edge, !llvm.loop !60
}